; Function Attrs: mustprogress nofree norecurse nosync nounwind willreturn memory(read, inaccessiblemem: none) uwtable
define i64 @_ZNK11OpenImageIO6v3_1_08DeepData11channeltypeEi(ptr noundef nonnull readonly align 8 captures(none) dereferenceable(20) %0, i32 noundef %1) local_unnamed_addr #12 align 2 {
  %3 = icmp sgt i32 %1, -1
  %4 = getelementptr inbounds nuw i8, ptr %0, i64 16
  %5 = load i32, ptr %4, align 8
  %6 = icmp slt i32 %1, %5
  %or.cond = select i1 %3, i1 %6, i1 false
  br i1 %or.cond, label %7, label %13

7:                                                ; preds = %2
  %8 = load ptr, ptr %0, align 8, !tbaa !35
  %9 = zext nneg i32 %1 to i64
  %10 = load ptr, ptr %8, align 8, !tbaa !9
  %11 = getelementptr inbounds nuw %"struct.OpenImageIO::v3_1_0::TypeDesc", ptr %10, i64 %9
  %12 = load i64, ptr %11, align 4
  br label %13

13:                                               ; preds = %2, %7
  %.sroa.0.0.insert.insert = phi i64 [ %12, %7 ], [ 256, %2 ]
  ret i64 %.sroa.0.0.insert.insert
}